target datalayout = "e-m:e-p270:32:32-p271:32:32-p272:64:64-i64:64-i128:128-f80:128-n8:16:32:64-S128"
target triple = "x86_64-unknown-linux-gnu"

%struct.BlockDriverState = type { i32, i8, i8, i8, i8, i8, ptr, ptr, ptr, %struct.anon, i8, [4096 x i8], [4096 x i8], [4096 x i8], [16 x i8], ptr, [4096 x i8], %struct.BlockLimits, i32, i32, i32, i32, [32 x i8], %union.anon, %union.anon.0, %union.anon.1, i32, [16 x %struct.anon.2], ptr, %struct.anon.3, ptr, ptr, %struct.anon.4, ptr, ptr, i32, ptr, i64, i64, %struct.QemuMutex, %struct.anon.5, %struct.Stat64, i32, i32, i32, i32, i32, i32, %struct.QemuMutex, %struct.anon.6, %struct.CoQueue, i8, i32, i8, %struct.CoMutex, ptr, ptr }
%struct.anon = type { ptr }
%struct.BlockLimits = type { i32, i64, i32, i64, i32, i32, i32, i64, i32, i64, i64, i32, i8, i32, i32, i32, i32, i32, i32, i32 }
%union.anon = type { %struct.QTailQLink }
%struct.QTailQLink = type { ptr, ptr }
%union.anon.0 = type { %struct.QTailQLink }
%union.anon.1 = type { %struct.QTailQLink }
%struct.anon.2 = type { ptr }
%struct.anon.3 = type { ptr }
%struct.anon.4 = type { ptr }
%struct.anon.5 = type { ptr }
%struct.Stat64 = type { i64 }
%struct.QemuMutex = type { %union.pthread_mutex_t, i8 }
%union.pthread_mutex_t = type { %struct.__pthread_mutex_s }
%struct.__pthread_mutex_s = type { i32, i32, i32, i32, i32, i16, i16, %struct.__pthread_internal_list }
%struct.__pthread_internal_list = type { ptr, ptr }
%struct.anon.6 = type { ptr }
%struct.CoQueue = type { %struct.anon.7 }
%struct.anon.7 = type { ptr, ptr }
%struct.CoMutex = type { i32, ptr, %struct.anon.8, %struct.anon.8, i32, i32, ptr }
%struct.anon.8 = type { ptr }
%struct.BdrvChild = type { ptr, ptr, ptr, i32, ptr, i64, i64, i8, i8, %struct.anon.12, %struct.anon.13 }
%struct.anon.12 = type { ptr, ptr }
%struct.anon.13 = type { ptr, ptr }

@stderr = external global ptr, align 8
@.str.16 = private unnamed_addr constant [32 x i8] c"qcow2_free_clusters failed: %s\0A\00", align 1

; Function Attrs: nounwind sspstrong uwtable
define dso_local void @qcow2_free_clusters(ptr noundef %bs, i64 noundef %offset, i64 noundef %size, i32 noundef %type) #0 {
entry:
  %bs.addr = alloca ptr, align 8
  %offset.addr = alloca i64, align 8
  %size.addr = alloca i64, align 8
  %type.addr = alloca i32, align 4
  %ret = alloca i32, align 4
  store ptr %bs, ptr %bs.addr, align 8
  store i64 %offset, ptr %offset.addr, align 8
  store i64 %size, ptr %size.addr, align 8
  store i32 %type, ptr %type.addr, align 4
  br label %do.body

do.body:                                          ; preds = %entry
  %0 = load ptr, ptr %bs.addr, align 8
  %file = getelementptr inbounds %struct.BlockDriverState, ptr %0, i32 0, i32 31
  %1 = load ptr, ptr %file, align 8
  %tobool = icmp ne ptr %1, null
  br i1 %tobool, label %if.then, label %if.end

if.then:                                          ; preds = %do.body
  %2 = load ptr, ptr %bs.addr, align 8
  %file1 = getelementptr inbounds %struct.BlockDriverState, ptr %2, i32 0, i32 31
  %3 = load ptr, ptr %file1, align 8
  %bs2 = getelementptr inbounds %struct.BdrvChild, ptr %3, i32 0, i32 0
  %4 = load ptr, ptr %bs2, align 8
  call void @bdrv_debug_event(ptr noundef %4, i32 noundef 32)
  br label %if.end

if.end:                                           ; preds = %if.then, %do.body
  br label %do.end

do.end:                                           ; preds = %if.end
  %5 = load ptr, ptr %bs.addr, align 8
  %6 = load i64, ptr %offset.addr, align 8
  %7 = load i64, ptr %size.addr, align 8
  %8 = load i32, ptr %type.addr, align 4
  %call = call i32 @update_refcount(ptr noundef %5, i64 noundef %6, i64 noundef %7, i64 noundef 1, i1 noundef zeroext true, i32 noundef %8)
  store i32 %call, ptr %ret, align 4
  %9 = load i32, ptr %ret, align 4
  %cmp = icmp slt i32 %9, 0
  br i1 %cmp, label %if.then3, label %if.end6

if.then3:                                         ; preds = %do.end
  %10 = load ptr, ptr @stderr, align 8
  %11 = load i32, ptr %ret, align 4
  %sub = sub i32 0, %11
  %call4 = call ptr @strerror(i32 noundef %sub) #13
  %call5 = call i32 (ptr, ptr, ...) @fprintf(ptr noundef %10, ptr noundef @.str.16, ptr noundef %call4)
  br label %if.end6

if.end6:                                          ; preds = %if.then3, %do.end
  ret void
}