; Function Attrs: nounwind sspstrong uwtable
define dso_local void @qcow2_free_clusters(ptr noundef %bs, i64 noundef %offset, i64 noundef %size, i32 noundef %type) local_unnamed_addr #0 {
entry:
  %file = getelementptr inbounds nuw i8, ptr %bs, i64 16840
  %0 = load ptr, ptr %file, align 8
  %tobool.not = icmp eq ptr %0, null
  br i1 %tobool.not, label %do.end, label %if.then

if.then:                                          ; preds = %entry
  %1 = load ptr, ptr %0, align 8
  tail call void @bdrv_debug_event(ptr noundef %1, i32 noundef 32) #17
  br label %do.end

do.end:                                           ; preds = %entry, %if.then
  %call = tail call fastcc i32 @update_refcount(ptr noundef nonnull %bs, i64 noundef %offset, i64 noundef %size, i64 noundef 1, i1 noundef zeroext true, i32 noundef %type)
  %cmp = icmp slt i32 %call, 0
  br i1 %cmp, label %if.then3, label %if.end6

if.then3:                                         ; preds = %do.end
  %2 = load ptr, ptr @stderr, align 8
  %sub = sub i32 0, %call
  %call4 = tail call ptr @strerror(i32 noundef %sub) #17
  %call5 = tail call i32 (ptr, ptr, ...) @fprintf(ptr noundef %2, ptr noundef nonnull @.str.16, ptr noundef %call4) #19
  br label %if.end6

if.end6:                                          ; preds = %if.then3, %do.end
  ret void
}